Certificate:
    Data:
        Version: 3 (0x2)
        Serial Number: 1 (0x1)
    Signature Algorithm: sha256WithRSAEncryption
        Issuer: CN=oai-mme.oai.svc.cluster.local, C=FR, ST=PACA, L=Aix, O=Eurecom, OU=CM
        Validity
            Not Before: Oct 24 10:06:29 2019 GMT
            Not After : Oct 23 10:06:29 2020 GMT
        Subject: C=FR, ST=PACA, O=Eurecom, OU=CM, CN=oai-mme.oai.svc.cluster.local
        Subject Public Key Info:
            Public Key Algorithm: rsaEncryption
                Public-Key: (1024 bit)
                Modulus:
                    00:cc:2e:6a:d5:41:46:30:51:82:b1:e6:4f:cc:4d:
                    b1:16:71:56:d7:41:79:77:b0:46:c0:dd:94:d2:63:
                    50:12:f9:ec:42:27:57:65:ce:0e:d5:6e:26:1a:44:
                    9e:cd:58:96:a6:98:55:6a:81:5d:62:28:50:d4:b3:
                    e3:bd:3f:9e:bb:d2:e4:6a:ec:81:82:27:74:f9:5d:
                    40:1c:ef:88:e3:3d:be:bc:a5:61:72:ef:01:cd:e0:
                    50:62:70:27:80:d9:57:4f:f5:9a:d5:f8:bf:e7:82:
                    7e:46:3d:92:c1:63:dd:df:89:fa:ce:2a:98:36:d2:
                    7c:37:d0:8d:b3:ea:4f:2a:79
                Exponent: 65537 (0x10001)
        X509v3 extensions:
            X509v3 Basic Constraints: 
                CA:FALSE
            Netscape Comment: 
                OpenSSL Generated Certificate
            X509v3 Subject Key Identifier: 
                7F:F4:4B:84:3B:D2:FA:BE:3E:16:32:08:83:19:69:E6:CA:0F:A3:65
            X509v3 Authority Key Identifier: 
                keyid:A2:06:2A:95:8B:AD:B5:5F:BD:1B:18:1C:AB:FB:DA:F7:9F:1E:C2:86

    Signature Algorithm: sha256WithRSAEncryption
         0c:fb:c8:0f:38:8a:5e:23:98:50:30:01:82:f3:a9:8a:06:e6:
         74:06:9a:59:e4:cc:f9:49:1c:0d:01:25:c9:36:32:08:b8:1b:
         c0:02:81:ab:00:b1:63:52:7b:08:a4:af:d3:15:ad:6d:31:63:
         25:bc:e3:22:70:13:d8:f1:ff:d5:b6:f2:ac:c8:0a:42:97:c0:
         bf:6c:75:6a:45:c4:45:a9:7d:88:e9:46:ae:50:24:28:70:dc:
         40:d7:97:4a:a5:69:fb:40:d1:26:f5:47:62:12:6f:db:54:0c:
         30:25:7e:b9:52:7a:e9:05:e4:8d:40:36:1c:4d:b6:d1:f4:a2:
         01:2c
-----BEGIN CERTIFICATE-----
MIICxTCCAi6gAwIBAgIBATANBgkqhkiG9w0BAQsFADBxMSYwJAYDVQQDDB1vYWkt
bW1lLm9haS5zdmMuY2x1c3Rlci5sb2NhbDELMAkGA1UEBhMCRlIxDTALBgNVBAgM
BFBBQ0ExDDAKBgNVBAcMA0FpeDEQMA4GA1UECgwHRXVyZWNvbTELMAkGA1UECwwC
Q00wHhcNMTkxMDI0MTAwNjI5WhcNMjAxMDIzMTAwNjI5WjBjMQswCQYDVQQGEwJG
UjENMAsGA1UECAwEUEFDQTEQMA4GA1UECgwHRXVyZWNvbTELMAkGA1UECwwCQ00x
JjAkBgNVBAMMHW9haS1tbWUub2FpLnN2Yy5jbHVzdGVyLmxvY2FsMIGfMA0GCSqG
SIb3DQEBAQUAA4GNADCBiQKBgQDMLmrVQUYwUYKx5k/MTbEWcVbXQXl3sEbA3ZTS
Y1AS+exCJ1dlzg7VbiYaRJ7NWJammFVqgV1iKFDUs+O9P5670uRq7IGCJ3T5XUAc
74jjPb68pWFy7wHN4FBicCeA2VdP9ZrV+L/ngn5GPZLBY93fifrOKpg20nw30I2z
6k8qeQIDAQABo3sweTAJBgNVHRMEAjAAMCwGCWCGSAGG+EIBDQQfFh1PcGVuU1NM
IEdlbmVyYXRlZCBDZXJ0aWZpY2F0ZTAdBgNVHQ4EFgQUf/RLhDvS+r4+FjIIgxlp
5soPo2UwHwYDVR0jBBgwFoAUogYqlYuttV+9Gxgcq/va958ewoYwDQYJKoZIhvcN
AQELBQADgYEADPvIDziKXiOYUDABgvOpigbmdAaaWeTM+UkcDQElyTYyCLgbwAKB
qwCxY1J7CKSv0xWtbTFjJbzjInAT2PH/1bbyrMgKQpfAv2x1akXERal9iOlGrlAk
KHDcQNeXSqVp+0DRJvVHYhJv21QMMCV+uVJ66QXkjUA2HE220fSiASw=
-----END CERTIFICATE-----
