Certificate:
    Data:
        Version: 3 (0x2)
        Serial Number: 1 (0x1)
        Signature Algorithm: sha256WithRSAEncryption
        Issuer: CN=mme.openair4G.eur, C=FR, ST=PACA, L=Aix, O=Eurecom, OU=CM
        Validity
            Not Before: Aug 16 16:39:54 2019 GMT
            Not After : Aug 15 16:39:54 2020 GMT
        Subject: C=FR, ST=PACA, O=Eurecom, OU=CM, CN=mme.openair4G.eur
        Subject Public Key Info:
            Public Key Algorithm: rsaEncryption
                RSA Public-Key: (1024 bit)
                Modulus:
                    00:c3:81:ef:30:2b:73:72:f5:74:e3:fb:37:09:a2:
                    81:ce:f6:5a:4d:b1:94:12:dd:74:9c:67:be:76:cf:
                    83:a7:a6:03:ad:63:39:a6:86:68:a5:82:6e:66:01:
                    7f:03:77:c4:ee:32:e0:90:a2:a0:82:38:47:01:e3:
                    21:c8:e9:fc:d3:64:35:06:9d:7c:05:70:eb:e0:04:
                    0c:84:3b:76:69:4e:a5:34:96:fe:ed:61:2d:e1:cf:
                    63:8e:45:d3:bd:4a:d2:65:b6:91:60:c9:6e:cc:6d:
                    34:28:e7:35:e3:b5:74:5b:60:78:55:8d:55:cb:d9:
                    97:2f:2e:4e:7a:04:33:cc:13
                Exponent: 65537 (0x10001)
        X509v3 extensions:
            X509v3 Basic Constraints: 
                CA:FALSE
            Netscape Comment: 
                OpenSSL Generated Certificate
            X509v3 Subject Key Identifier: 
                6B:A9:CC:17:CD:F2:07:B1:2C:8D:B9:0C:8F:5B:62:E9:75:5B:0D:7B
            X509v3 Authority Key Identifier: 
                keyid:49:74:87:14:06:F7:B2:AE:1F:10:D0:37:90:38:D3:A9:D2:D8:F4:EE

    Signature Algorithm: sha256WithRSAEncryption
         0f:79:f7:a0:53:3f:32:bf:83:00:5d:4b:bc:8a:9e:32:73:dc:
         15:28:07:71:d2:2e:18:82:63:e1:e8:77:32:4e:ba:44:50:5e:
         80:13:02:4e:68:a8:f1:80:b3:9f:d3:a7:9a:bf:ca:70:77:27:
         99:c9:55:0d:05:32:da:7c:cc:1f:fb:46:68:4f:6a:28:05:26:
         7d:7e:37:e2:e4:e0:ca:ab:e3:6b:bf:ec:9e:1e:48:bd:80:de:
         92:67:59:64:54:be:87:f9:50:c4:6e:98:29:aa:20:65:bc:a4:
         d1:5e:7a:05:0f:34:44:cc:ea:f3:9f:f0:2d:e0:22:a2:84:59:
         73:fd
-----BEGIN CERTIFICATE-----
MIICrTCCAhagAwIBAgIBATANBgkqhkiG9w0BAQsFADBlMRowGAYDVQQDDBFtbWUu
b3BlbmFpcjRHLmV1cjELMAkGA1UEBhMCRlIxDTALBgNVBAgMBFBBQ0ExDDAKBgNV
BAcMA0FpeDEQMA4GA1UECgwHRXVyZWNvbTELMAkGA1UECwwCQ00wHhcNMTkwODE2
MTYzOTU0WhcNMjAwODE1MTYzOTU0WjBXMQswCQYDVQQGEwJGUjENMAsGA1UECAwE
UEFDQTEQMA4GA1UECgwHRXVyZWNvbTELMAkGA1UECwwCQ00xGjAYBgNVBAMMEW1t
ZS5vcGVuYWlyNEcuZXVyMIGfMA0GCSqGSIb3DQEBAQUAA4GNADCBiQKBgQDDge8w
K3Ny9XTj+zcJooHO9lpNsZQS3XScZ752z4OnpgOtYzmmhmilgm5mAX8Dd8TuMuCQ
oqCCOEcB4yHI6fzTZDUGnXwFcOvgBAyEO3ZpTqU0lv7tYS3hz2OORdO9StJltpFg
yW7MbTQo5zXjtXRbYHhVjVXL2ZcvLk56BDPMEwIDAQABo3sweTAJBgNVHRMEAjAA
MCwGCWCGSAGG+EIBDQQfFh1PcGVuU1NMIEdlbmVyYXRlZCBDZXJ0aWZpY2F0ZTAd
BgNVHQ4EFgQUa6nMF83yB7EsjbkMj1ti6XVbDXswHwYDVR0jBBgwFoAUSXSHFAb3
sq4fENA3kDjTqdLY9O4wDQYJKoZIhvcNAQELBQADgYEAD3n3oFM/Mr+DAF1LvIqe
MnPcFSgHcdIuGIJj4eh3Mk66RFBegBMCTmio8YCzn9Onmr/KcHcnmclVDQUy2nzM
H/tGaE9qKAUmfX434uTgyqvja7/snh5IvYDekmdZZFS+h/lQxG6YKaogZbyk0V56
BQ80RMzq85/wLeAiooRZc/0=
-----END CERTIFICATE-----
