Certificate:
    Data:
        Version: 3 (0x2)
        Serial Number: 1 (0x1)
        Signature Algorithm: sha256WithRSAEncryption
        Issuer: CN=oai-hss.oai.svc.cluster.local, C=FR, ST=PACA, L=Aix, O=Eurecom, OU=CM
        Validity
            Not Before: Aug 14 20:54:35 2019 GMT
            Not After : Aug 13 20:54:35 2020 GMT
        Subject: C=FR, ST=PACA, O=Eurecom, OU=CM, CN=oai-hss.oai.svc.cluster.local
        Subject Public Key Info:
            Public Key Algorithm: rsaEncryption
                RSA Public-Key: (1024 bit)
                Modulus:
                    00:fe:b5:37:1c:9a:6a:29:7c:16:a8:88:31:50:f1:
                    75:cf:42:6c:93:5c:27:d7:7a:dc:51:10:20:5b:2e:
                    32:8f:70:6e:4e:d7:46:de:b1:84:d4:a6:af:4f:5c:
                    3e:07:8f:7d:f8:0c:0e:39:66:ed:d8:44:97:2e:96:
                    4b:36:d5:4e:ab:e2:f4:e8:31:f7:ed:bc:0b:4f:5e:
                    f2:b3:15:90:97:53:2f:0d:bb:67:4d:12:8f:6c:1e:
                    42:5c:b1:a7:76:1d:06:b0:f3:0d:8c:dd:fe:84:31:
                    d6:cf:14:2b:97:8d:be:e5:34:81:77:49:93:ca:37:
                    79:b1:7f:47:dc:15:cd:70:bd
                Exponent: 65537 (0x10001)
        X509v3 extensions:
            X509v3 Basic Constraints: 
                CA:FALSE
            Netscape Comment: 
                OpenSSL Generated Certificate
            X509v3 Subject Key Identifier: 
                CC:3F:79:D9:8B:5C:80:FA:B0:DB:D8:85:C4:0F:95:73:3E:DE:B1:CD
            X509v3 Authority Key Identifier: 
                keyid:F4:85:F0:38:5E:42:AE:65:67:7D:66:94:E7:D7:06:18:93:55:13:29

    Signature Algorithm: sha256WithRSAEncryption
         5a:8b:45:91:e7:49:7f:72:87:76:c3:00:05:c8:06:ac:6d:47:
         2b:ad:ac:01:cb:3b:b3:3a:87:b6:52:78:e0:03:0e:f0:74:2e:
         e7:fe:27:c5:e1:e6:40:b8:1b:92:a5:ff:fc:f9:c0:11:be:17:
         67:6b:a5:8e:8d:73:31:f2:a0:c5:fd:76:c5:43:4d:22:a6:48:
         8f:dc:07:4c:86:c0:4f:47:96:ba:5f:cf:00:a4:9a:4e:e5:39:
         0e:77:97:c5:6e:ff:ab:5e:8d:6e:62:73:11:d7:6b:68:ec:df:
         78:57:58:31:79:dc:95:3b:e0:83:5c:2d:17:7e:7f:85:a0:47:
         d7:9a
-----BEGIN CERTIFICATE-----
MIICrTCCAhagAwIBAgIBATANBgkqhkiG9w0BAQsFADBlMRowGAYDVQQDDBFoc3Mu
b3BlbmFpcjRHLmV1cjELMAkGA1UEBhMCRlIxDTALBgNVBAgMBFBBQ0ExDDAKBgNV
BAcMA0FpeDEQMA4GA1UECgwHRXVyZWNvbTELMAkGA1UECwwCQ00wHhcNMTkwODE0
MjA1NDM1WhcNMjAwODEzMjA1NDM1WjBXMQswCQYDVQQGEwJGUjENMAsGA1UECAwE
UEFDQTEQMA4GA1UECgwHRXVyZWNvbTELMAkGA1UECwwCQ00xGjAYBgNVBAMMEWhz
cy5vcGVuYWlyNEcuZXVyMIGfMA0GCSqGSIb3DQEBAQUAA4GNADCBiQKBgQD+tTcc
mmopfBaoiDFQ8XXPQmyTXCfXetxRECBbLjKPcG5O10besYTUpq9PXD4Hj334DA45
Zu3YRJculks21U6r4vToMfftvAtPXvKzFZCXUy8Nu2dNEo9sHkJcsad2HQaw8w2M
3f6EMdbPFCuXjb7lNIF3SZPKN3mxf0fcFc1wvQIDAQABo3sweTAJBgNVHRMEAjAA
MCwGCWCGSAGG+EIBDQQfFh1PcGVuU1NMIEdlbmVyYXRlZCBDZXJ0aWZpY2F0ZTAd
BgNVHQ4EFgQUzD952YtcgPqw29iFxA+Vcz7esc0wHwYDVR0jBBgwFoAU9IXwOF5C
rmVnfWaU59cGGJNVEykwDQYJKoZIhvcNAQELBQADgYEAWotFkedJf3KHdsMABcgG
rG1HK62sAcs7szqHtlJ44AMO8HQu5/4nxeHmQLgbkqX//PnAEb4XZ2uljo1zMfKg
xf12xUNNIqZIj9wHTIbAT0eWul/PAKSaTuU5DneXxW7/q16NbmJzEddraOzfeFdY
MXnclTvgg1wtF35/haBH15o=
-----END CERTIFICATE-----
